target datalayout = "e-m:e-p270:32:32-p271:32:32-p272:64:64-i64:64-i128:128-f80:128-n8:16:32:64-S128"
target triple = "x86_64-pc-linux-gnu"

%union.FRONTEND_VERILOG_YYSTYPE = type { ptr }
%struct.FRONTEND_VERILOG_YYLTYPE = type { i32, i32, i32, i32 }

@stderr = external global ptr, align 8
@.str.14 = private unnamed_addr constant [2 x i8] c"\0A\00", align 1
@.str.621 = private unnamed_addr constant [38 x i8] c"Reducing stack by rule %d (line %d):\0A\00", align 1
@.str.622 = private unnamed_addr constant [10 x i8] c"   $%d = \00", align 1

; Function Attrs: mustprogress uwtable
define internal void @_ZL15yy_reduce_printPsP24FRONTEND_VERILOG_YYSTYPEP24FRONTEND_VERILOG_YYLTYPEi(ptr noundef %0, ptr noundef %1, ptr noundef %2, i32 noundef %3) #6 {
  %5 = alloca ptr, align 8
  %6 = alloca ptr, align 8
  %7 = alloca ptr, align 8
  %8 = alloca i32, align 4
  %9 = alloca i32, align 4
  %10 = alloca i32, align 4
  %11 = alloca i32, align 4
  store ptr %0, ptr %5, align 8, !tbaa !43
  store ptr %1, ptr %6, align 8, !tbaa !45
  store ptr %2, ptr %7, align 8, !tbaa !47
  store i32 %3, ptr %8, align 4, !tbaa !39
  call void @llvm.lifetime.start.p0(i64 4, ptr %9) #3
  %12 = load i32, ptr %8, align 4, !tbaa !39
  %13 = sext i32 %12 to i64
  %14 = getelementptr inbounds [703 x i16], ptr @_ZL7yyrline, i64 0, i64 %13
  %15 = load i16, ptr %14, align 2, !tbaa !54
  %16 = sext i16 %15 to i32
  store i32 %16, ptr %9, align 4, !tbaa !39
  call void @llvm.lifetime.start.p0(i64 4, ptr %10) #3
  %17 = load i32, ptr %8, align 4, !tbaa !39
  %18 = sext i32 %17 to i64
  %19 = getelementptr inbounds [703 x i8], ptr @_ZL4yyr2, i64 0, i64 %18
  %20 = load i8, ptr %19, align 1, !tbaa !37
  %21 = sext i8 %20 to i32
  store i32 %21, ptr %10, align 4, !tbaa !39
  call void @llvm.lifetime.start.p0(i64 4, ptr %11) #3
  %22 = load ptr, ptr @stderr, align 8, !tbaa !52
  %23 = load i32, ptr %8, align 4, !tbaa !39
  %24 = sub nsw i32 %23, 1
  %25 = load i32, ptr %9, align 4, !tbaa !39
  %26 = call i32 (ptr, ptr, ...) @fprintf(ptr noundef %22, ptr noundef @.str.621, i32 noundef %24, i32 noundef %25) #3
  store i32 0, ptr %11, align 4, !tbaa !39
  br label %27

27:                                               ; preds = %66, %4
  %28 = load i32, ptr %11, align 4, !tbaa !39
  %29 = load i32, ptr %10, align 4, !tbaa !39
  %30 = icmp slt i32 %28, %29
  br i1 %30, label %31, label %69

31:                                               ; preds = %27
  %32 = load ptr, ptr @stderr, align 8, !tbaa !52
  %33 = load i32, ptr %11, align 4, !tbaa !39
  %34 = add nsw i32 %33, 1
  %35 = call i32 (ptr, ptr, ...) @fprintf(ptr noundef %32, ptr noundef @.str.622, i32 noundef %34) #3
  %36 = load ptr, ptr @stderr, align 8, !tbaa !52
  %37 = load ptr, ptr %5, align 8, !tbaa !43
  %38 = load i32, ptr %11, align 4, !tbaa !39
  %39 = add nsw i32 %38, 1
  %40 = load i32, ptr %10, align 4, !tbaa !39
  %41 = sub nsw i32 %39, %40
  %42 = sext i32 %41 to i64
  %43 = getelementptr inbounds i16, ptr %37, i64 %42
  %44 = load i16, ptr %43, align 2, !tbaa !54
  %45 = sext i16 %44 to i32
  %46 = sext i32 %45 to i64
  %47 = getelementptr inbounds [1363 x i16], ptr @_ZL6yystos, i64 0, i64 %46
  %48 = load i16, ptr %47, align 2, !tbaa !54
  %49 = sext i16 %48 to i32
  %50 = load ptr, ptr %6, align 8, !tbaa !45
  %51 = load i32, ptr %11, align 4, !tbaa !39
  %52 = add nsw i32 %51, 1
  %53 = load i32, ptr %10, align 4, !tbaa !39
  %54 = sub nsw i32 %52, %53
  %55 = sext i32 %54 to i64
  %56 = getelementptr inbounds %union.FRONTEND_VERILOG_YYSTYPE, ptr %50, i64 %55
  %57 = load ptr, ptr %7, align 8, !tbaa !47
  %58 = load i32, ptr %11, align 4, !tbaa !39
  %59 = add nsw i32 %58, 1
  %60 = load i32, ptr %10, align 4, !tbaa !39
  %61 = sub nsw i32 %59, %60
  %62 = sext i32 %61 to i64
  %63 = getelementptr inbounds %struct.FRONTEND_VERILOG_YYLTYPE, ptr %57, i64 %62
  call void @_ZL15yy_symbol_printP8_IO_FILE15yysymbol_kind_tPK24FRONTEND_VERILOG_YYSTYPEPK24FRONTEND_VERILOG_YYLTYPE(ptr noundef %36, i32 noundef %49, ptr noundef %56, ptr noundef %63)
  %64 = load ptr, ptr @stderr, align 8, !tbaa !52
  %65 = call i32 (ptr, ptr, ...) @fprintf(ptr noundef %64, ptr noundef @.str.14) #3
  br label %66

66:                                               ; preds = %31
  %67 = load i32, ptr %11, align 4, !tbaa !39
  %68 = add nsw i32 %67, 1
  store i32 %68, ptr %11, align 4, !tbaa !39
  br label %27, !llvm.loop !162

69:                                               ; preds = %27
  call void @llvm.lifetime.end.p0(i64 4, ptr %11) #3
  call void @llvm.lifetime.end.p0(i64 4, ptr %10) #3
  call void @llvm.lifetime.end.p0(i64 4, ptr %9) #3
  ret void
}