; Function Attrs: cold mustprogress nofree nounwind uwtable
define internal fastcc void @_ZL15yy_reduce_printPsP24FRONTEND_VERILOG_YYSTYPEP24FRONTEND_VERILOG_YYLTYPEi(ptr noundef nonnull readonly captures(none) %0, ptr noundef nonnull readonly captures(none) %1, i32 noundef range(i32 -32768, 32769) %2) unnamed_addr #9 {
  %4 = sext i32 %2 to i64
  %5 = getelementptr inbounds [703 x i16], ptr @_ZL7yyrline, i64 0, i64 %4
  %6 = load i16, ptr %5, align 2, !tbaa !83
  %7 = sext i16 %6 to i32
  %8 = getelementptr inbounds [703 x i8], ptr @_ZL4yyr2, i64 0, i64 %4
  %9 = load i8, ptr %8, align 1, !tbaa !19
  %10 = load ptr, ptr @stderr, align 8, !tbaa !81
  %11 = add nsw i32 %2, -1
  %12 = tail call i32 (ptr, ptr, ...) @fprintf(ptr noundef %10, ptr noundef nonnull @.str.621, i32 noundef %11, i32 noundef %7) #37
  %13 = icmp sgt i8 %9, 0
  br i1 %13, label %.lr.ph.preheader, label %._crit_edge

.lr.ph.preheader:                                 ; preds = %3
  %14 = zext nneg i8 %9 to i64
  %wide.trip.count = zext nneg i8 %9 to i64
  br label %.lr.ph

.lr.ph:                                           ; preds = %.lr.ph.preheader, %.lr.ph
  %indvars.iv = phi i64 [ 0, %.lr.ph.preheader ], [ %indvars.iv.next, %.lr.ph ]
  %15 = load ptr, ptr @stderr, align 8, !tbaa !81
  %indvars.iv.next = add nuw nsw i64 %indvars.iv, 1
  %16 = trunc nuw nsw i64 %indvars.iv.next to i32
  %17 = tail call i32 (ptr, ptr, ...) @fprintf(ptr noundef %15, ptr noundef nonnull @.str.622, i32 noundef %16) #37
  %18 = load ptr, ptr @stderr, align 8, !tbaa !81
  %19 = sub nsw i64 %indvars.iv.next, %14
  %20 = getelementptr inbounds i16, ptr %0, i64 %19
  %21 = load i16, ptr %20, align 2, !tbaa !83
  %22 = sext i16 %21 to i64
  %23 = getelementptr inbounds [1363 x i16], ptr @_ZL6yystos, i64 0, i64 %22
  %24 = load i16, ptr %23, align 2, !tbaa !83
  %25 = sext i16 %24 to i32
  %26 = getelementptr inbounds %struct.FRONTEND_VERILOG_YYLTYPE, ptr %1, i64 %19
  tail call fastcc void @_ZL15yy_symbol_printP8_IO_FILE15yysymbol_kind_tPK24FRONTEND_VERILOG_YYSTYPEPK24FRONTEND_VERILOG_YYLTYPE(ptr noundef %18, i32 noundef %25, ptr noundef %26)
  %27 = load ptr, ptr @stderr, align 8, !tbaa !81
  %fputc = tail call i32 @fputc(i32 10, ptr %27)
  %exitcond.not = icmp eq i64 %indvars.iv.next, %wide.trip.count
  br i1 %exitcond.not, label %._crit_edge, label %.lr.ph, !llvm.loop !185

._crit_edge:                                      ; preds = %.lr.ph, %3
  ret void
}